(dp0
I0
(dp1
S'seg02_03.wav'
p2
(i__main__
clip
p3
(dp4
S'duration'
p5
I20
sS'name'
p6
S'1627'
p7
sS'idx'
p8
I6
sbsS'seg03_02.wav'
p9
(i__main__
clip
p10
(dp11
g5
I20
sg6
S'979'
p12
sg8
I14
sbsS'seg01_03.wav'
p13
(i__main__
clip
p14
(dp15
g5
I20
sg6
S'1054'
p16
sg8
I10
sbsS'seg02_05.wav'
p17
(i__main__
clip
p18
(dp19
g5
I20
sg6
S'979'
p20
sg8
I6
sbsS'seg02_01.wav'
p21
(i__main__
clip
p22
(dp23
g5
I20
sg6
S'1621'
p24
sg8
I14
sbsS'seg03_07.wav'
p25
(i__main__
clip
p26
(dp27
g5
I20
sg6
S'1054'
p28
sg8
I16
sbsS'seg04_05.wav'
p29
(i__main__
clip
p30
(dp31
g5
I20
sg6
S'1627'
p32
sg8
I4
sbsS'seg02_08.wav'
p33
(i__main__
clip
p34
(dp35
g5
I20
sg6
S'1627'
p36
sg8
I8
sbsS'seg01_04.wav'
p37
(i__main__
clip
p38
(dp39
g5
I20
sg6
S'1054'
p40
sg8
I14
sbsS'seg04_09.wav'
p41
(i__main__
clip
p42
(dp43
g5
I20
sg6
S'1621'
p44
sg8
I4
sbsS'seg04_02.wav'
p45
(i__main__
clip
p46
(dp47
g5
I20
sg6
S'1054'
p48
sg8
I8
sbsS'seg01_01.wav'
p49
(i__main__
clip
p50
(dp51
g5
I20
sg6
S'1621'
p52
sg8
I2
sbsS'seg02_02.wav'
p53
(i__main__
clip
p54
(dp55
g5
I20
sg6
S'1627'
p56
sg8
I2
sbsS'seg03_03.wav'
p57
(i__main__
clip
p58
(dp59
g5
I20
sg6
S'979'
p60
sg8
I2
sbsS'seg03_04.wav'
p61
(i__main__
clip
p62
(dp63
g5
I20
sg6
S'1621'
p64
sg8
I10
sbsS'seg01_06.wav'
p65
(i__main__
clip
p66
(dp67
g5
I20
sg6
S'1054'
p68
sg8
I6
sbsS'seg04_01.wav'
p69
(i__main__
clip
p70
(dp71
g5
I20
sg6
S'1621'
p72
sg8
I6
sbsS'seg03_09.wav'
p73
(i__main__
clip
p74
(dp75
g5
I20
sg6
S'1054'
p76
sg8
I12
sbsS'seg02_09.wav'
p77
(i__main__
clip
p78
(dp79
g5
I20
sg6
S'1621'
p80
sg8
I8
sbsS'seg01_02.wav'
p81
(i__main__
clip
p82
(dp83
g5
I20
sg6
S'979'
p84
sg8
I12
sbsS'seg01_09.wav'
p85
(i__main__
clip
p86
(dp87
g5
I20
sg6
S'979'
p88
sg8
I0
sbsS'seg02_06.wav'
p89
(i__main__
clip
p90
(dp91
g5
I20
sg6
S'1621'
p92
sg8
I12
sbsS'seg01_10.wav'
p93
cnumpy.core.multiarray
scalar
p94
(cnumpy
dtype
p95
(S'S18'
p96
I0
I1
tp97
Rp98
(I3
S'|'
p99
NNNI18
I1
I0
tp100
bS'1605/1605_20_2.wav'
p101
tp102
Rp103
sS'seg02_10.wav'
p104
g94
(g95
(S'S18'
p105
I0
I1
tp106
Rp107
(I3
S'|'
p108
NNNI18
I1
I0
tp109
bS'1605/1605_20_6.wav'
p110
tp111
Rp112
sS'seg04_03.wav'
p113
(i__main__
clip
p114
(dp115
g5
I20
sg6
S'1621'
p116
sg8
I16
sbsS'seg01_07.wav'
p117
(i__main__
clip
p118
(dp119
g5
I20
sg6
S'979'
p120
sg8
I10
sbsS'seg04_07.wav'
p121
(i__main__
clip
p122
(dp123
g5
I20
sg6
S'979'
p124
sg8
I4
sbsS'seg04_10.wav'
p125
g94
(g95
(S'S18'
p126
I0
I1
tp127
Rp128
(I3
S'|'
p129
NNNI18
I1
I0
tp130
bS'1605/1605_20_0.wav'
p131
tp132
Rp133
sS'seg03_08.wav'
p134
(i__main__
clip
p135
(dp136
g5
I20
sg6
S'1621'
p137
sg8
I18
sbsS'seg02_04.wav'
p138
(i__main__
clip
p139
(dp140
g5
I20
sg6
S'1054'
p141
sg8
I2
sbsS'seg03_06.wav'
p142
(i__main__
clip
p143
(dp144
g5
I20
sg6
S'1621'
p145
sg8
I0
sbsS'seg04_04.wav'
p146
(i__main__
clip
p147
(dp148
g5
I20
sg6
S'1054'
p149
sg8
I0
sbsS'seg03_10.wav'
p150
g94
(g95
(S'S18'
p151
I0
I1
tp152
Rp153
(I3
S'|'
p154
NNNI18
I1
I0
tp155
bS'1605/1605_20_0.wav'
p156
tp157
Rp158
sS'seg04_08.wav'
p159
(i__main__
clip
p160
(dp161
g5
I20
sg6
S'1054'
p162
sg8
I4
sbsS'seg01_08.wav'
p163
(i__main__
clip
p164
(dp165
g5
I20
sg6
S'1627'
p166
sg8
I0
sbsS'seg04_06.wav'
p167
(i__main__
clip
p168
(dp169
g5
I20
sg6
S'1627'
p170
sg8
I14
sbsS'seg02_07.wav'
p171
(i__main__
clip
p172
(dp173
g5
I20
sg6
S'1627'
p174
sg8
I12
sbsS'seg01_05.wav'
p175
g58
sS'seg03_05.wav'
p176
(i__main__
clip
p177
(dp178
g5
I20
sg6
S'979'
p179
sg8
I8
sbsS'seg03_01.wav'
p180
(i__main__
clip
p181
(dp182
g5
I20
sg6
S'1627'
p183
sg8
I10
sbssI1
(dp184
S'seg08_09.wav'
p185
(i__main__
clip
p186
(dp187
g5
I20
sg6
S'1621'
p188
sg8
I1
sbsS'seg05_01.wav'
p189
(i__main__
clip
p190
(dp191
g5
I20
sg6
S'979'
p192
sg8
I1
sbsS'seg06_02.wav'
p193
(i__main__
clip
p194
(dp195
g5
I20
sg6
S'1621'
p196
sg8
I15
sbsS'seg05_06.wav'
p197
(i__main__
clip
p198
(dp199
g5
I20
sg6
S'1627'
p200
sg8
I1
sbsS'seg07_10.wav'
p201
g94
(g95
(S'S18'
p202
I0
I1
tp203
Rp204
(I3
S'|'
p205
NNNI18
I1
I0
tp206
bS'1605/1605_20_0.wav'
p207
tp208
Rp209
sS'seg08_02.wav'
p210
(i__main__
clip
p211
(dp212
g5
I20
sg6
S'1621'
p213
sg8
I3
sbsS'seg07_09.wav'
p214
(i__main__
clip
p215
(dp216
g5
I20
sg6
S'1054'
p217
sg8
I11
sbsS'seg07_05.wav'
p218
(i__main__
clip
p219
(dp220
g5
I20
sg6
S'1054'
p221
sg8
I3
sbsS'seg05_10.wav'
p222
g94
(g95
(S'S18'
p223
I0
I1
tp224
Rp225
(I3
S'|'
p226
NNNI18
I1
I0
tp227
bS'1605/1605_20_2.wav'
p228
tp229
Rp230
sS'seg06_04.wav'
p231
(i__main__
clip
p232
(dp233
g5
I20
sg6
S'1627'
p234
sg8
I11
sbsS'seg05_09.wav'
p235
(i__main__
clip
p236
(dp237
g5
I20
sg6
S'1621'
p238
sg8
I19
sbsS'seg05_03.wav'
p239
(i__main__
clip
p240
(dp241
g5
I20
sg6
S'1054'
p242
sg8
I5
sbsS'seg06_01.wav'
p243
(i__main__
clip
p244
(dp245
g5
I20
sg6
S'1627'
p246
sg8
I13
sbsS'seg08_10.wav'
p247
g94
(g95
(S'S18'
p248
I0
I1
tp249
Rp250
(I3
S'|'
p251
NNNI18
I1
I0
tp252
bS'1605/1605_20_0.wav'
p253
tp254
Rp255
sS'seg07_07.wav'
p256
(i__main__
clip
p257
(dp258
g5
I20
sg6
S'1054'
p259
sg8
I7
sbsS'seg06_03.wav'
p260
(i__main__
clip
p261
(dp262
g5
I20
sg6
S'1054'
p263
sg8
I15
sbsS'seg07_03.wav'
p264
(i__main__
clip
p265
(dp266
g5
I20
sg6
S'1627'
p267
sg8
I7
sbsS'seg07_04.wav'
p268
(i__main__
clip
p269
(dp270
g5
I20
sg6
S'979'
p271
sg8
I11
sbsS'seg08_04.wav'
p272
(i__main__
clip
p273
(dp274
g5
I20
sg6
S'1621'
p275
sg8
I13
sbsS'seg08_06.wav'
p276
(i__main__
clip
p277
(dp278
g5
I20
sg6
S'1054'
p279
sg8
I1
sbsS'seg06_07.wav'
p280
(i__main__
clip
p281
(dp282
g5
I20
sg6
S'1621'
p283
sg8
I17
sbsS'seg05_04.wav'
p284
(i__main__
clip
p285
(dp286
g5
I20
sg6
S'979'
p287
sg8
I7
sbsS'seg06_10.wav'
p288
g94
(g95
(S'S18'
p289
I0
I1
tp290
Rp291
(I3
S'|'
p292
NNNI18
I1
I0
tp293
bS'1605/1605_20_6.wav'
p294
tp295
Rp296
sS'seg06_08.wav'
p297
(i__main__
clip
p298
(dp299
g5
I20
sg6
S'1054'
p300
sg8
I9
sbsS'seg08_08.wav'
p301
(i__main__
clip
p302
(dp303
g5
I20
sg6
S'979'
p304
sg8
I5
sbsS'seg08_05.wav'
p305
(i__main__
clip
p306
(dp307
g5
I20
sg6
S'1054'
p308
sg8
I13
sbsS'seg08_01.wav'
p309
(i__main__
clip
p310
(dp311
g5
I20
sg6
S'1621'
p312
sg8
I5
sbsS'seg05_07.wav'
p313
(i__main__
clip
p314
(dp315
g5
I20
sg6
S'1621'
p316
sg8
I9
sbsS'seg07_02.wav'
p317
(i__main__
clip
p318
(dp319
g5
I20
sg6
S'979'
p320
sg8
I3
sbsS'seg06_06.wav'
p321
(i__main__
clip
p322
(dp323
g5
I20
sg6
S'1627'
p324
sg8
I15
sbsS'seg05_02.wav'
p325
(i__main__
clip
p326
(dp327
g5
I20
sg6
S'1627'
p328
sg8
I9
sbsS'seg06_05.wav'
p329
g322
sS'seg08_07.wav'
p330
(i__main__
clip
p331
(dp332
g5
I20
sg6
S'1621'
p333
sg8
I11
sbsS'seg08_03.wav'
p334
g281
sS'seg07_01.wav'
p335
(i__main__
clip
p336
(dp337
g5
I20
sg6
S'1627'
p338
sg8
I3
sbsS'seg07_06.wav'
p339
g186
sS'seg05_05.wav'
p340
(i__main__
clip
p341
(dp342
g5
I20
sg6
S'979'
p343
sg8
I9
sbsS'seg07_08.wav'
p344
(i__main__
clip
p345
(dp346
g5
I20
sg6
S'979'
p347
sg8
I13
sbsS'seg06_09.wav'
p348
(i__main__
clip
p349
(dp350
g5
I20
sg6
S'1627'
p351
sg8
I5
sbsS'seg05_08.wav'
p352
(i__main__
clip
p353
(dp354
g5
I20
sg6
S'1621'
p355
sg8
I7
sbss.