(dp0
I0
(dp1
S'seg02_03.wav'
p2
(i__main__
clip
p3
(dp4
S'duration'
p5
I20
sS'name'
p6
S'Here, There And Everywhere'
p7
sS'idx'
p8
I0
sbsS'seg05_01.wav'
p9
(i__main__
clip
p10
(dp11
g5
I20
sg6
S'All You Need Is Love'
p12
sg8
I2
sbsS'seg03_02.wav'
p13
(i__main__
clip
p14
(dp15
g5
I20
sg6
S'Help!'
p16
sg8
I2
sbsS'seg01_03.wav'
p17
(i__main__
clip
p18
(dp19
g5
I20
sg6
S'Here, There And Everywhere'
p20
sg8
I10
sbsS'seg05_06.wav'
p21
(i__main__
clip
p22
(dp23
g5
I20
sg6
S'All You Need Is Love'
p24
sg8
I20
sbsS'seg02_05.wav'
p25
(i__main__
clip
p26
(dp27
g5
I20
sg6
S'Strawberry Fields Forever'
p28
sg8
I4
sbsS'seg02_01.wav'
p29
(i__main__
clip
p30
(dp31
g5
I20
sg6
S'Here, There And Everywhere'
p32
sg8
I2
sbsS'seg03_07.wav'
p33
(i__main__
clip
p34
(dp35
g5
I20
sg6
S'Strawberry Fields Forever'
p36
sg8
I14
sbsS'seg04_05.wav'
p37
(i__main__
clip
p38
(dp39
g5
I20
sg6
S'Help!'
p40
sg8
I0
sbsS'seg02_08.wav'
p41
g22
sS'seg01_04.wav'
p42
(i__main__
clip
p43
(dp44
g5
I20
sg6
S'All You Need Is Love'
p45
sg8
I8
sbsS'seg05_10.wav'
p46
cnumpy.core.multiarray
scalar
p47
(cnumpy
dtype
p48
(S'S37'
p49
I0
I1
tp50
Rp51
(I3
S'|'
p52
NNNI37
I1
I0
tp53
bS'Come Together/Come Together_20_16.wav'
p54
tp55
Rp56
sS'seg04_09.wav'
p57
(i__main__
clip
p58
(dp59
g5
I20
sg6
S'Strawberry Fields Forever'
p60
sg8
I16
sbsS'seg04_02.wav'
p61
(i__main__
clip
p62
(dp63
g5
I20
sg6
S'Help!'
p64
sg8
I4
sbsS'seg05_09.wav'
p65
(i__main__
clip
p66
(dp67
g5
I20
sg6
S'All You Need Is Love'
p68
sg8
I16
sbsS'seg01_01.wav'
p69
(i__main__
clip
p70
(dp71
g5
I20
sg6
S'Strawberry Fields Forever'
p72
sg8
I22
sbsS'seg02_02.wav'
p73
(i__main__
clip
p74
(dp75
g5
I20
sg6
S'All You Need Is Love'
p76
sg8
I6
sbsS'seg03_03.wav'
p77
(i__main__
clip
p78
(dp79
g5
I20
sg6
S'Here, There And Everywhere'
p80
sg8
I4
sbsS'seg03_04.wav'
p81
g34
sS'seg01_06.wav'
p82
(i__main__
clip
p83
(dp84
g5
I20
sg6
S'Strawberry Fields Forever'
p85
sg8
I0
sbsS'seg04_01.wav'
p86
(i__main__
clip
p87
(dp88
g5
I20
sg6
S'Here, There And Everywhere'
p89
sg8
I12
sbsS'seg03_09.wav'
p90
(i__main__
clip
p91
(dp92
g5
I20
sg6
S'All You Need Is Love'
p93
sg8
I12
sbsS'seg02_09.wav'
p94
(i__main__
clip
p95
(dp96
g5
I20
sg6
S'Here, There And Everywhere'
p97
sg8
I6
sbsS'seg01_02.wav'
p98
(i__main__
clip
p99
(dp100
g5
I20
sg6
S'Strawberry Fields Forever'
p101
sg8
I8
sbsS'seg01_09.wav'
p102
(i__main__
clip
p103
(dp104
g5
I20
sg6
S'Help!'
p105
sg8
I8
sbsS'seg05_02.wav'
p106
(i__main__
clip
p107
(dp108
g5
I20
sg6
S'All You Need Is Love'
p109
sg8
I10
sbsS'seg02_06.wav'
p110
(i__main__
clip
p111
(dp112
g5
I20
sg6
S'Help!'
p113
sg8
I12
sbsS'seg05_04.wav'
p114
(i__main__
clip
p115
(dp116
g5
I20
sg6
S'Strawberry Fields Forever'
p117
sg8
I10
sbsS'seg01_10.wav'
p118
g47
(g48
(S'S37'
p119
I0
I1
tp120
Rp121
(I3
S'|'
p122
NNNI37
I1
I0
tp123
bS'Come Together/Come Together_20_10.wav'
p124
tp125
Rp126
sS'seg02_10.wav'
p127
g47
(g48
(S'S36'
p128
I0
I1
tp129
Rp130
(I3
S'|'
p131
NNNI36
I1
I0
tp132
bS'Come Together/Come Together_20_6.wav'
p133
tp134
Rp135
sS'seg04_03.wav'
p136
(i__main__
clip
p137
(dp138
g5
I20
sg6
S'All You Need Is Love'
p139
sg8
I0
sbsS'seg01_07.wav'
p140
(i__main__
clip
p141
(dp142
g5
I20
sg6
S'Strawberry Fields Forever'
p143
sg8
I18
sbsS'seg04_07.wav'
p144
(i__main__
clip
p145
(dp146
g5
I20
sg6
S'Help!'
p147
sg8
I6
sbsS'seg04_10.wav'
p148
g47
(g48
(S'S37'
p149
I0
I1
tp150
Rp151
(I3
S'|'
p152
NNNI37
I1
I0
tp153
bS'Come Together/Come Together_20_10.wav'
p154
tp155
Rp156
sS'seg03_08.wav'
p157
(i__main__
clip
p158
(dp159
g5
I20
sg6
S'All You Need Is Love'
p160
sg8
I18
sbsS'seg05_07.wav'
p161
g18
sS'seg02_04.wav'
p162
g91
sS'seg05_03.wav'
p163
g62
sS'seg03_06.wav'
p164
(i__main__
clip
p165
(dp166
g5
I20
sg6
S'Strawberry Fields Forever'
p167
sg8
I2
sbsS'seg04_04.wav'
p168
(i__main__
clip
p169
(dp170
g5
I20
sg6
S'Strawberry Fields Forever'
p171
sg8
I12
sbsS'seg03_10.wav'
p172
g47
(g48
(S'S37'
p173
I0
I1
tp174
Rp175
(I3
S'|'
p176
NNNI37
I1
I0
tp177
bS'Come Together/Come Together_20_10.wav'
p178
tp179
Rp180
sS'seg04_08.wav'
p181
(i__main__
clip
p182
(dp183
g5
I20
sg6
S'Here, There And Everywhere'
p184
sg8
I8
sbsS'seg01_08.wav'
p185
(i__main__
clip
p186
(dp187
g5
I20
sg6
S'Strawberry Fields Forever'
p188
sg8
I6
sbsS'seg04_06.wav'
p189
(i__main__
clip
p190
(dp191
g5
I20
sg6
S'Strawberry Fields Forever'
p192
sg8
I24
sbsS'seg02_07.wav'
p193
(i__main__
clip
p194
(dp195
g5
I20
sg6
S'Strawberry Fields Forever'
p196
sg8
I20
sbsS'seg05_05.wav'
p197
g43
sS'seg01_05.wav'
p198
(i__main__
clip
p199
(dp200
g5
I20
sg6
S'All You Need Is Love'
p201
sg8
I14
sbsS'seg03_05.wav'
p202
g141
sS'seg03_01.wav'
p203
(i__main__
clip
p204
(dp205
g5
I20
sg6
S'All You Need Is Love'
p206
sg8
I4
sbsS'seg05_08.wav'
p207
(i__main__
clip
p208
(dp209
g5
I20
sg6
S'Help!'
p210
sg8
I10
sbssI1
(dp211
S'seg08_09.wav'
p212
(i__main__
clip
p213
(dp214
g5
I20
sg6
S'Help!'
p215
sg8
I1
sbsS'seg06_04.wav'
p216
(i__main__
clip
p217
(dp218
g5
I20
sg6
S'Help!'
p219
sg8
I11
sbsS'seg06_02.wav'
p220
(i__main__
clip
p221
(dp222
g5
I20
sg6
S'Here, There And Everywhere'
p223
sg8
I11
sbsS'seg07_08.wav'
p224
(i__main__
clip
p225
(dp226
g5
I20
sg6
S'All You Need Is Love'
p227
sg8
I11
sbsS'seg07_10.wav'
p228
g47
(g48
(S'S36'
p229
I0
I1
tp230
Rp231
(I3
S'|'
p232
NNNI36
I1
I0
tp233
bS'Come Together/Come Together_20_6.wav'
p234
tp235
Rp236
sS'seg08_02.wav'
p237
(i__main__
clip
p238
(dp239
g5
I20
sg6
S'Help!'
p240
sg8
I9
sbsS'seg09_04.wav'
p241
(i__main__
clip
p242
(dp243
g5
I20
sg6
S'Help!'
p244
sg8
I7
sbsS'seg09_08.wav'
p245
(i__main__
clip
p246
(dp247
g5
I20
sg6
S'Help!'
p248
sg8
I5
sbsS'seg07_05.wav'
p249
(i__main__
clip
p250
(dp251
g5
I20
sg6
S'Strawberry Fields Forever'
p252
sg8
I15
sbsS'seg09_06.wav'
p253
(i__main__
clip
p254
(dp255
g5
I20
sg6
S'All You Need Is Love'
p256
sg8
I1
sbsS'seg07_07.wav'
p257
(i__main__
clip
p258
(dp259
g5
I20
sg6
S'Strawberry Fields Forever'
p260
sg8
I23
sbsS'seg08_04.wav'
p261
(i__main__
clip
p262
(dp263
g5
I20
sg6
S'All You Need Is Love'
p264
sg8
I17
sbsS'seg10_06.wav'
p265
(i__main__
clip
p266
(dp267
g5
I20
sg6
S'All You Need Is Love'
p268
sg8
I15
sbsS'seg09_07.wav'
p269
(i__main__
clip
p270
(dp271
g5
I20
sg6
S'Help!'
p272
sg8
I3
sbsS'seg10_10.wav'
p273
g47
(g48
(S'S37'
p274
I0
I1
tp275
Rp276
(I3
S'|'
p277
NNNI37
I1
I0
tp278
bS'Come Together/Come Together_20_10.wav'
p279
tp280
Rp281
sS'seg06_03.wav'
p282
(i__main__
clip
p283
(dp284
g5
I20
sg6
S'All You Need Is Love'
p285
sg8
I9
sbsS'seg09_05.wav'
p286
(i__main__
clip
p287
(dp288
g5
I20
sg6
S'Strawberry Fields Forever'
p289
sg8
I5
sbsS'seg08_10.wav'
p290
g47
(g48
(S'S37'
p291
I0
I1
tp292
Rp293
(I3
S'|'
p294
NNNI37
I1
I0
tp295
bS'Come Together/Come Together_20_10.wav'
p296
tp297
Rp298
sS'seg07_04.wav'
p299
g254
sS'seg10_05.wav'
p300
(i__main__
clip
p301
(dp302
g5
I20
sg6
S'Strawberry Fields Forever'
p303
sg8
I19
sbsS'seg08_06.wav'
p304
(i__main__
clip
p305
(dp306
g5
I20
sg6
S'Here, There And Everywhere'
p307
sg8
I7
sbsS'seg09_10.wav'
p308
g47
(g48
(S'S37'
p309
I0
I1
tp310
Rp311
(I3
S'|'
p312
NNNI37
I1
I0
tp313
bS'Come Together/Come Together_20_10.wav'
p314
tp315
Rp316
sS'seg06_07.wav'
p317
g250
sS'seg09_03.wav'
p318
(i__main__
clip
p319
(dp320
g5
I20
sg6
S'Help!'
p321
sg8
I13
sbsS'seg09_09.wav'
p322
(i__main__
clip
p323
(dp324
g5
I20
sg6
S'All You Need Is Love'
p325
sg8
I5
sbsS'seg06_01.wav'
p326
(i__main__
clip
p327
(dp328
g5
I20
sg6
S'Here, There And Everywhere'
p329
sg8
I9
sbsS'seg10_02.wav'
p330
(i__main__
clip
p331
(dp332
g5
I20
sg6
S'Strawberry Fields Forever'
p333
sg8
I3
sbsS'seg06_10.wav'
p334
g47
(g48
(S'S36'
p335
I0
I1
tp336
Rp337
(I3
S'|'
p338
NNNI36
I1
I0
tp339
bS'Come Together/Come Together_20_8.wav'
p340
tp341
Rp342
sS'seg06_08.wav'
p343
g242
sS'seg08_08.wav'
p344
(i__main__
clip
p345
(dp346
g5
I20
sg6
S'Here, There And Everywhere'
p347
sg8
I5
sbsS'seg08_05.wav'
p348
(i__main__
clip
p349
(dp350
g5
I20
sg6
S'Here, There And Everywhere'
p351
sg8
I13
sbsS'seg10_07.wav'
p352
(i__main__
clip
p353
(dp354
g5
I20
sg6
S'Strawberry Fields Forever'
p355
sg8
I21
sbsS'seg07_09.wav'
p356
(i__main__
clip
p357
(dp358
g5
I20
sg6
S'All You Need Is Love'
p359
sg8
I7
sbsS'seg06_09.wav'
p360
(i__main__
clip
p361
(dp362
g5
I20
sg6
S'Strawberry Fields Forever'
p363
sg8
I17
sbsS'seg09_01.wav'
p364
(i__main__
clip
p365
(dp366
g5
I20
sg6
S'Strawberry Fields Forever'
p367
sg8
I7
sbsS'seg06_06.wav'
p368
g327
sS'seg10_01.wav'
p369
(i__main__
clip
p370
(dp371
g5
I20
sg6
S'Strawberry Fields Forever'
p372
sg8
I9
sbsS'seg08_01.wav'
p373
(i__main__
clip
p374
(dp375
g5
I20
sg6
S'All You Need Is Love'
p376
sg8
I13
sbsS'seg10_03.wav'
p377
(i__main__
clip
p378
(dp379
g5
I20
sg6
S'Here, There And Everywhere'
p380
sg8
I3
sbsS'seg06_05.wav'
p381
(i__main__
clip
p382
(dp383
g5
I20
sg6
S'Strawberry Fields Forever'
p384
sg8
I1
sbsS'seg10_04.wav'
p385
g262
sS'seg07_03.wav'
p386
g258
sS'seg08_07.wav'
p387
(i__main__
clip
p388
(dp389
g5
I20
sg6
S'Here, There And Everywhere'
p390
sg8
I1
sbsS'seg08_03.wav'
p391
g319
sS'seg07_01.wav'
p392
(i__main__
clip
p393
(dp394
g5
I20
sg6
S'All You Need Is Love'
p395
sg8
I19
sbsS'seg09_02.wav'
p396
(i__main__
clip
p397
(dp398
g5
I20
sg6
S'Strawberry Fields Forever'
p399
sg8
I11
sbsS'seg10_09.wav'
p400
(i__main__
clip
p401
(dp402
g5
I20
sg6
S'All You Need Is Love'
p403
sg8
I21
sbsS'seg10_08.wav'
p404
(i__main__
clip
p405
(dp406
g5
I20
sg6
S'All You Need Is Love'
p407
sg8
I3
sbsS'seg07_02.wav'
p408
g357
sS'seg07_06.wav'
p409
(i__main__
clip
p410
(dp411
g5
I20
sg6
S'Strawberry Fields Forever'
p412
sg8
I13
sbss.